target datalayout = "e-m:e-p270:32:32-p271:32:32-p272:64:64-i64:64-i128:128-f80:128-n8:16:32:64-S128"
target triple = "x86_64-pc-linux-gnu"

%"class.Stockfish::Move" = type { i16 }
%"struct.Stockfish::TTEntry" = type { i16, i8, i8, %"class.Stockfish::Move", i16, i16 }
%"class.Stockfish::TranspositionTable" = type <{ i64, ptr, i8, [7 x i8] }>
%"struct.Stockfish::TranspositionTable::Cluster" = type { [3 x %"struct.Stockfish::TTEntry"], [2 x i8] }

; Function Attrs: mustprogress nounwind uwtable
define linkonce_odr dso_local noundef i64 @_ZN9Stockfish8mul_hi64Emm(i64 noundef %0, i64 noundef %1) #4 comdat {
  %3 = alloca i64, align 8
  %4 = alloca i64, align 8
  store i64 %0, ptr %3, align 8
  store i64 %1, ptr %4, align 8
  %5 = load i64, ptr %3, align 8
  %6 = zext i64 %5 to i128
  %7 = load i64, ptr %4, align 8
  %8 = zext i64 %7 to i128
  %9 = mul i128 %6, %8
  %10 = lshr i128 %9, 64
  %11 = trunc i128 %10 to i64
  ret i64 %11
}

; Function Attrs: mustprogress nounwind uwtable
define dso_local noundef zeroext i8 @_ZNK9Stockfish7TTEntry12relative_ageEh(ptr noundef nonnull align 2 dereferenceable(10) %0, i8 noundef zeroext %1) #4 align 2 {
  %3 = alloca ptr, align 8
  %4 = alloca i8, align 1
  store ptr %0, ptr %3, align 8
  store i8 %1, ptr %4, align 1
  %5 = load ptr, ptr %3, align 8
  %6 = load i8, ptr %4, align 1
  %7 = zext i8 %6 to i32
  %8 = add nsw i32 263, %7
  %9 = getelementptr inbounds %"struct.Stockfish::TTEntry", ptr %5, i32 0, i32 2
  %10 = load i8, ptr %9, align 1
  %11 = zext i8 %10 to i32
  %12 = sub nsw i32 %8, %11
  %13 = and i32 %12, 248
  %14 = trunc i32 %13 to i8
  ret i8 %14
}

; Function Attrs: mustprogress nounwind uwtable
define linkonce_odr dso_local noundef ptr @_ZNK9Stockfish18TranspositionTable11first_entryEm(ptr noundef nonnull align 8 dereferenceable(17) %0, i64 noundef %1) #4 comdat align 2 {
  %3 = alloca ptr, align 8
  %4 = alloca i64, align 8
  store ptr %0, ptr %3, align 8
  store i64 %1, ptr %4, align 8
  %5 = load ptr, ptr %3, align 8
  %6 = getelementptr inbounds %"class.Stockfish::TranspositionTable", ptr %5, i32 0, i32 1
  %7 = load ptr, ptr %6, align 8
  %8 = load i64, ptr %4, align 8
  %9 = getelementptr inbounds %"class.Stockfish::TranspositionTable", ptr %5, i32 0, i32 0
  %10 = load i64, ptr %9, align 8
  %11 = call noundef i64 @_ZN9Stockfish8mul_hi64Emm(i64 noundef %8, i64 noundef %10)
  %12 = getelementptr inbounds %"struct.Stockfish::TranspositionTable::Cluster", ptr %7, i64 %11
  %13 = getelementptr inbounds %"struct.Stockfish::TranspositionTable::Cluster", ptr %12, i32 0, i32 0
  %14 = getelementptr inbounds [3 x %"struct.Stockfish::TTEntry"], ptr %13, i64 0, i64 0
  ret ptr %14
}

; Function Attrs: mustprogress nounwind uwtable
define dso_local noundef ptr @_ZNK9Stockfish18TranspositionTable5probeEmRb(ptr noundef nonnull align 8 dereferenceable(17) %0, i64 noundef %1, ptr noundef nonnull align 1 dereferenceable(1) %2) #4 align 2 {
  %4 = alloca ptr, align 8
  %5 = alloca ptr, align 8
  %6 = alloca i64, align 8
  %7 = alloca ptr, align 8
  %8 = alloca ptr, align 8
  %9 = alloca i16, align 2
  %10 = alloca i32, align 4
  %11 = alloca i8, align 1
  %12 = alloca ptr, align 8
  %13 = alloca i32, align 4
  store ptr %0, ptr %5, align 8
  store i64 %1, ptr %6, align 8
  store ptr %2, ptr %7, align 8
  %14 = load ptr, ptr %5, align 8
  %15 = load i64, ptr %6, align 8
  %16 = call noundef ptr @_ZNK9Stockfish18TranspositionTable11first_entryEm(ptr noundef nonnull align 8 dereferenceable(17) %14, i64 noundef %15)
  store ptr %16, ptr %8, align 8
  %17 = load i64, ptr %6, align 8
  %18 = trunc i64 %17 to i16
  store i16 %18, ptr %9, align 2
  store i32 0, ptr %10, align 4
  br label %19

19:                                               ; preds = %74, %3
  %20 = load i32, ptr %10, align 4
  %21 = icmp slt i32 %20, 3
  br i1 %21, label %22, label %77

22:                                               ; preds = %19
  %23 = load ptr, ptr %8, align 8
  %24 = load i32, ptr %10, align 4
  %25 = sext i32 %24 to i64
  %26 = getelementptr inbounds %"struct.Stockfish::TTEntry", ptr %23, i64 %25
  %27 = getelementptr inbounds %"struct.Stockfish::TTEntry", ptr %26, i32 0, i32 0
  %28 = load i16, ptr %27, align 2
  %29 = zext i16 %28 to i32
  %30 = load i16, ptr %9, align 2
  %31 = zext i16 %30 to i32
  %32 = icmp eq i32 %29, %31
  br i1 %32, label %41, label %33

33:                                               ; preds = %22
  %34 = load ptr, ptr %8, align 8
  %35 = load i32, ptr %10, align 4
  %36 = sext i32 %35 to i64
  %37 = getelementptr inbounds %"struct.Stockfish::TTEntry", ptr %34, i64 %36
  %38 = getelementptr inbounds %"struct.Stockfish::TTEntry", ptr %37, i32 0, i32 1
  %39 = load i8, ptr %38, align 2
  %40 = icmp ne i8 %39, 0
  br i1 %40, label %73, label %41

41:                                               ; preds = %33, %22
  store i8 7, ptr %11, align 1
  %42 = getelementptr inbounds %"class.Stockfish::TranspositionTable", ptr %14, i32 0, i32 2
  %43 = load i8, ptr %42, align 8
  %44 = zext i8 %43 to i32
  %45 = load ptr, ptr %8, align 8
  %46 = load i32, ptr %10, align 4
  %47 = sext i32 %46 to i64
  %48 = getelementptr inbounds %"struct.Stockfish::TTEntry", ptr %45, i64 %47
  %49 = getelementptr inbounds %"struct.Stockfish::TTEntry", ptr %48, i32 0, i32 2
  %50 = load i8, ptr %49, align 1
  %51 = zext i8 %50 to i32
  %52 = and i32 %51, 7
  %53 = or i32 %44, %52
  %54 = trunc i32 %53 to i8
  %55 = load ptr, ptr %8, align 8
  %56 = load i32, ptr %10, align 4
  %57 = sext i32 %56 to i64
  %58 = getelementptr inbounds %"struct.Stockfish::TTEntry", ptr %55, i64 %57
  %59 = getelementptr inbounds %"struct.Stockfish::TTEntry", ptr %58, i32 0, i32 2
  store i8 %54, ptr %59, align 1
  %60 = load ptr, ptr %8, align 8
  %61 = load i32, ptr %10, align 4
  %62 = sext i32 %61 to i64
  %63 = getelementptr inbounds %"struct.Stockfish::TTEntry", ptr %60, i64 %62
  %64 = getelementptr inbounds %"struct.Stockfish::TTEntry", ptr %63, i32 0, i32 1
  %65 = load i8, ptr %64, align 2
  %66 = icmp ne i8 %65, 0
  %67 = load ptr, ptr %7, align 8
  %68 = zext i1 %66 to i8
  store i8 %68, ptr %67, align 1
  %69 = load ptr, ptr %8, align 8
  %70 = load i32, ptr %10, align 4
  %71 = sext i32 %70 to i64
  %72 = getelementptr inbounds %"struct.Stockfish::TTEntry", ptr %69, i64 %71
  store ptr %72, ptr %4, align 8
  br label %122

73:                                               ; preds = %33
  br label %74

74:                                               ; preds = %73
  %75 = load i32, ptr %10, align 4
  %76 = add nsw i32 %75, 1
  store i32 %76, ptr %10, align 4
  br label %19, !llvm.loop !7

77:                                               ; preds = %19
  %78 = load ptr, ptr %8, align 8
  store ptr %78, ptr %12, align 8
  store i32 1, ptr %13, align 4
  br label %79

79:                                               ; preds = %116, %77
  %80 = load i32, ptr %13, align 4
  %81 = icmp slt i32 %80, 3
  br i1 %81, label %82, label %119

82:                                               ; preds = %79
  %83 = load ptr, ptr %12, align 8
  %84 = getelementptr inbounds %"struct.Stockfish::TTEntry", ptr %83, i32 0, i32 1
  %85 = load i8, ptr %84, align 2
  %86 = zext i8 %85 to i32
  %87 = load ptr, ptr %12, align 8
  %88 = getelementptr inbounds %"class.Stockfish::TranspositionTable", ptr %14, i32 0, i32 2
  %89 = load i8, ptr %88, align 8
  %90 = call noundef zeroext i8 @_ZNK9Stockfish7TTEntry12relative_ageEh(ptr noundef nonnull align 2 dereferenceable(10) %87, i8 noundef zeroext %89)
  %91 = zext i8 %90 to i32
  %92 = sub nsw i32 %86, %91
  %93 = load ptr, ptr %8, align 8
  %94 = load i32, ptr %13, align 4
  %95 = sext i32 %94 to i64
  %96 = getelementptr inbounds %"struct.Stockfish::TTEntry", ptr %93, i64 %95
  %97 = getelementptr inbounds %"struct.Stockfish::TTEntry", ptr %96, i32 0, i32 1
  %98 = load i8, ptr %97, align 2
  %99 = zext i8 %98 to i32
  %100 = load ptr, ptr %8, align 8
  %101 = load i32, ptr %13, align 4
  %102 = sext i32 %101 to i64
  %103 = getelementptr inbounds %"struct.Stockfish::TTEntry", ptr %100, i64 %102
  %104 = getelementptr inbounds %"class.Stockfish::TranspositionTable", ptr %14, i32 0, i32 2
  %105 = load i8, ptr %104, align 8
  %106 = call noundef zeroext i8 @_ZNK9Stockfish7TTEntry12relative_ageEh(ptr noundef nonnull align 2 dereferenceable(10) %103, i8 noundef zeroext %105)
  %107 = zext i8 %106 to i32
  %108 = sub nsw i32 %99, %107
  %109 = icmp sgt i32 %92, %108
  br i1 %109, label %110, label %115

110:                                              ; preds = %82
  %111 = load ptr, ptr %8, align 8
  %112 = load i32, ptr %13, align 4
  %113 = sext i32 %112 to i64
  %114 = getelementptr inbounds %"struct.Stockfish::TTEntry", ptr %111, i64 %113
  store ptr %114, ptr %12, align 8
  br label %115

115:                                              ; preds = %110, %82
  br label %116

116:                                              ; preds = %115
  %117 = load i32, ptr %13, align 4
  %118 = add nsw i32 %117, 1
  store i32 %118, ptr %13, align 4
  br label %79, !llvm.loop !8

119:                                              ; preds = %79
  %120 = load ptr, ptr %7, align 8
  store i8 0, ptr %120, align 1
  %121 = load ptr, ptr %12, align 8
  store ptr %121, ptr %4, align 8
  br label %122

122:                                              ; preds = %119, %41
  %123 = load ptr, ptr %4, align 8
  ret ptr %123
}