; Function Attrs: mustprogress nofree norecurse nosync nounwind memory(readwrite, inaccessiblemem: none) uwtable
define dso_local noundef ptr @_ZNK9Stockfish18TranspositionTable5probeEmRb(ptr nocapture noundef nonnull readonly align 8 dereferenceable(17) %0, i64 noundef %1, ptr nocapture noundef nonnull writeonly align 1 dereferenceable(1) %2) local_unnamed_addr #7 align 2 {
  %4 = getelementptr inbounds i8, ptr %0, i64 8
  %5 = load ptr, ptr %4, align 8
  %6 = load i64, ptr %0, align 8
  %7 = zext i64 %1 to i128
  %8 = zext i64 %6 to i128
  %9 = mul nuw i128 %8, %7
  %10 = lshr i128 %9, 64
  %11 = trunc i128 %10 to i64
  %12 = getelementptr inbounds %"struct.Stockfish::TranspositionTable::Cluster", ptr %5, i64 %11
  %13 = trunc i64 %1 to i16
  br label %18

14:                                               ; preds = %24
  %indvars.iv.next = add nuw nsw i64 %indvars.iv, 1
  %exitcond.not = icmp eq i64 %indvars.iv.next, 3
  br i1 %exitcond.not, label %.preheader, label %18, !llvm.loop !14

.preheader:                                       ; preds = %14
  %15 = getelementptr inbounds i8, ptr %0, i64 16
  %16 = load i8, ptr %15, align 8
  %17 = add i8 %16, 7
  br label %32

18:                                               ; preds = %3, %14
  %indvars.iv = phi i64 [ 0, %3 ], [ %indvars.iv.next, %14 ]
  %19 = getelementptr inbounds %"struct.Stockfish::TTEntry", ptr %12, i64 %indvars.iv
  %20 = load i16, ptr %19, align 2
  %21 = icmp eq i16 %20, %13
  %.phi.trans.insert = getelementptr inbounds i8, ptr %19, i64 2
  %.pre = load i8, ptr %.phi.trans.insert, align 2
  br i1 %21, label %._crit_edge, label %24

._crit_edge:                                      ; preds = %18
  %22 = icmp ne i8 %.pre, 0
  %23 = zext i1 %22 to i8
  br label %split

24:                                               ; preds = %18
  %.not = icmp eq i8 %.pre, 0
  br i1 %.not, label %split, label %14

split:                                            ; preds = %24, %._crit_edge
  %25 = phi i8 [ %23, %._crit_edge ], [ 0, %24 ]
  %26 = getelementptr inbounds i8, ptr %0, i64 16
  %27 = load i8, ptr %26, align 8
  %28 = getelementptr inbounds i8, ptr %19, i64 3
  %29 = load i8, ptr %28, align 1
  %30 = and i8 %29, 7
  %31 = or i8 %30, %27
  store i8 %31, ptr %28, align 1
  br label %.loopexit

32:                                               ; preds = %.preheader, %32
  %indvars.iv40 = phi i64 [ 1, %.preheader ], [ %indvars.iv.next41, %32 ]
  %.03236 = phi ptr [ %12, %.preheader ], [ %spec.select, %32 ]
  %33 = getelementptr inbounds i8, ptr %.03236, i64 2
  %34 = load i8, ptr %33, align 2
  %35 = zext i8 %34 to i32
  %36 = getelementptr inbounds i8, ptr %.03236, i64 3
  %37 = load i8, ptr %36, align 1
  %38 = sub i8 %17, %37
  %39 = and i8 %38, -8
  %40 = zext i8 %39 to i32
  %41 = sub nsw i32 %35, %40
  %42 = getelementptr inbounds %"struct.Stockfish::TTEntry", ptr %12, i64 %indvars.iv40
  %43 = getelementptr inbounds i8, ptr %42, i64 2
  %44 = load i8, ptr %43, align 2
  %45 = zext i8 %44 to i32
  %46 = getelementptr inbounds i8, ptr %42, i64 3
  %47 = load i8, ptr %46, align 1
  %48 = sub i8 %17, %47
  %49 = and i8 %48, -8
  %50 = zext i8 %49 to i32
  %51 = sub nsw i32 %45, %50
  %52 = icmp sgt i32 %41, %51
  %spec.select = select i1 %52, ptr %42, ptr %.03236
  %indvars.iv.next41 = add nuw nsw i64 %indvars.iv40, 1
  %exitcond43.not = icmp eq i64 %indvars.iv.next41, 3
  br i1 %exitcond43.not, label %.loopexit, label %32, !llvm.loop !15

.loopexit:                                        ; preds = %32, %split
  %storemerge = phi i8 [ %25, %split ], [ 0, %32 ]
  %.033 = phi ptr [ %19, %split ], [ %spec.select, %32 ]
  store i8 %storemerge, ptr %2, align 1
  ret ptr %.033
}